target datalayout = "e-m:e-p270:32:32-p271:32:32-p272:64:64-i64:64-i128:128-f80:128-n8:16:32:64-S128"
target triple = "x86_64-pc-linux-gnu"

%"struct.faiss::OnDiskInvertedLists" = type <{ %"struct.faiss::InvertedLists.base", [7 x i8], %"class.std::vector.5", %"class.std::__cxx11::list", %"class.std::__cxx11::basic_string", i64, ptr, i8, [7 x i8], ptr, ptr, i32, [4 x i8] }>
%"struct.faiss::InvertedLists.base" = type <{ ptr, i64, i64, i8 }>
%"class.std::vector.5" = type { %"struct.std::_Vector_base.6" }
%"struct.std::_Vector_base.6" = type { %"struct.std::_Vector_base<faiss::OnDiskOneList, std::allocator<faiss::OnDiskOneList>>::_Vector_impl" }
%"struct.std::_Vector_base<faiss::OnDiskOneList, std::allocator<faiss::OnDiskOneList>>::_Vector_impl" = type { %"struct.std::_Vector_base<faiss::OnDiskOneList, std::allocator<faiss::OnDiskOneList>>::_Vector_impl_data" }
%"struct.std::_Vector_base<faiss::OnDiskOneList, std::allocator<faiss::OnDiskOneList>>::_Vector_impl_data" = type { ptr, ptr, ptr }
%"class.std::__cxx11::list" = type { %"class.std::__cxx11::_List_base" }
%"class.std::__cxx11::_List_base" = type { %"struct.std::__cxx11::_List_base<faiss::OnDiskInvertedLists::Slot, std::allocator<faiss::OnDiskInvertedLists::Slot>>::_List_impl" }
%"struct.std::__cxx11::_List_base<faiss::OnDiskInvertedLists::Slot, std::allocator<faiss::OnDiskInvertedLists::Slot>>::_List_impl" = type { %"struct.std::__detail::_List_node_header" }
%"struct.std::__detail::_List_node_header" = type { %"struct.std::__detail::_List_node_base", i64 }
%"struct.std::__detail::_List_node_base" = type { ptr, ptr }
%"class.std::__cxx11::basic_string" = type { %"struct.std::__cxx11::basic_string<char>::_Alloc_hider", i64, %union.anon }
%"struct.std::__cxx11::basic_string<char>::_Alloc_hider" = type { ptr }
%union.anon = type { i64, [8 x i8] }

@.str.2 = private unnamed_addr constant [2 x i8] c"r\00", align 1
@.str.3 = private unnamed_addr constant [3 x i8] c"r+\00", align 1
@.str.4 = private unnamed_addr constant [53 x i8] c"Error: '%s' failed: could not open %s in mode %s: %s\00", align 1
@.str.5 = private unnamed_addr constant [2 x i8] c"f\00", align 1
@__PRETTY_FUNCTION__._ZN5faiss19OnDiskInvertedLists7do_mmapEv = private unnamed_addr constant [43 x i8] c"void faiss::OnDiskInvertedLists::do_mmap()\00", align 1
@.str.6 = private unnamed_addr constant [128 x i8] c"generated/home/dtcxzyw/WorkSpace/Projects/compilers/llvm-opt-benchmark/bench/faiss/faiss/faiss/invlists/OnDiskInvertedLists.cpp\00", align 1
@_ZTIN5faiss14FaissExceptionE = external constant ptr
@.str.7 = private unnamed_addr constant [42 x i8] c"Error: '%s' failed: could not mmap %s: %s\00", align 1
@.str.8 = private unnamed_addr constant [19 x i8] c"ptro != MAP_FAILED\00", align 1

; Function Attrs: mustprogress uwtable
define void @_ZN5faiss19OnDiskInvertedLists7do_mmapEv(ptr noundef nonnull align 8 dereferenceable(156) %0) #2 align 2 personality ptr @__gxx_personality_v0 {
  %2 = alloca ptr, align 8
  %3 = alloca ptr, align 8
  %4 = alloca i32, align 4
  %5 = alloca ptr, align 8
  %6 = alloca %"class.std::__cxx11::basic_string", align 8
  %7 = alloca i32, align 4
  %8 = alloca ptr, align 8
  %9 = alloca i32, align 4
  %10 = alloca ptr, align 8
  %11 = alloca %"class.std::__cxx11::basic_string", align 8
  %12 = alloca i32, align 4
  store ptr %0, ptr %2, align 8
  %13 = load ptr, ptr %2, align 8
  %14 = getelementptr inbounds %"struct.faiss::OnDiskInvertedLists", ptr %13, i32 0, i32 7
  %15 = load i8, ptr %14, align 8
  %16 = trunc i8 %15 to i1
  %17 = select i1 %16, ptr @.str.2, ptr @.str.3
  store ptr %17, ptr %3, align 8
  %18 = getelementptr inbounds %"struct.faiss::OnDiskInvertedLists", ptr %13, i32 0, i32 7
  %19 = load i8, ptr %18, align 8
  %20 = trunc i8 %19 to i1
  %21 = select i1 %20, i32 1, i32 3
  store i32 %21, ptr %4, align 4
  %22 = getelementptr inbounds %"struct.faiss::OnDiskInvertedLists", ptr %13, i32 0, i32 4
  %23 = call noundef ptr @_ZNKSt7__cxx1112basic_stringIcSt11char_traitsIcESaIcEE5c_strEv(ptr noundef nonnull align 8 dereferenceable(32) %22) #13
  %24 = load ptr, ptr %3, align 8
  %25 = call noalias ptr @fopen(ptr noundef %23, ptr noundef %24)
  store ptr %25, ptr %5, align 8
  br label %26

26:                                               ; preds = %1
  %27 = load ptr, ptr %5, align 8
  %28 = icmp ne ptr %27, null
  br i1 %28, label %64, label %29

29:                                               ; preds = %26
  br label %30

30:                                               ; preds = %29
  call void @_ZNSt7__cxx1112basic_stringIcSt11char_traitsIcESaIcEEC1Ev(ptr noundef nonnull align 8 dereferenceable(32) %6) #13
  %31 = getelementptr inbounds %"struct.faiss::OnDiskInvertedLists", ptr %13, i32 0, i32 4
  %32 = call noundef ptr @_ZNKSt7__cxx1112basic_stringIcSt11char_traitsIcESaIcEE5c_strEv(ptr noundef nonnull align 8 dereferenceable(32) %31) #13
  %33 = load ptr, ptr %3, align 8
  %34 = call ptr @__errno_location() #20
  %35 = load i32, ptr %34, align 4
  %36 = call ptr @strerror(i32 noundef %35) #13
  %37 = call i32 (ptr, i64, ptr, ...) @snprintf(ptr noundef null, i64 noundef 0, ptr noundef @.str.4, ptr noundef @.str.5, ptr noundef %32, ptr noundef %33, ptr noundef %36) #13
  store i32 %37, ptr %7, align 4
  %38 = load i32, ptr %7, align 4
  %39 = add nsw i32 %38, 1
  %40 = sext i32 %39 to i64
  invoke void @_ZNSt7__cxx1112basic_stringIcSt11char_traitsIcESaIcEE6resizeEm(ptr noundef nonnull align 8 dereferenceable(32) %6, i64 noundef %40)
          to label %41 unwind label %54

41:                                               ; preds = %30
  %42 = invoke noundef nonnull align 1 dereferenceable(1) ptr @_ZNSt7__cxx1112basic_stringIcSt11char_traitsIcESaIcEEixEm(ptr noundef nonnull align 8 dereferenceable(32) %6, i64 noundef 0)
          to label %43 unwind label %54

43:                                               ; preds = %41
  %44 = call noundef i64 @_ZNKSt7__cxx1112basic_stringIcSt11char_traitsIcESaIcEE4sizeEv(ptr noundef nonnull align 8 dereferenceable(32) %6) #13
  %45 = getelementptr inbounds %"struct.faiss::OnDiskInvertedLists", ptr %13, i32 0, i32 4
  %46 = call noundef ptr @_ZNKSt7__cxx1112basic_stringIcSt11char_traitsIcESaIcEE5c_strEv(ptr noundef nonnull align 8 dereferenceable(32) %45) #13
  %47 = load ptr, ptr %3, align 8
  %48 = call ptr @__errno_location() #20
  %49 = load i32, ptr %48, align 4
  %50 = call ptr @strerror(i32 noundef %49) #13
  %51 = call i32 (ptr, i64, ptr, ...) @snprintf(ptr noundef %42, i64 noundef %44, ptr noundef @.str.4, ptr noundef @.str.5, ptr noundef %46, ptr noundef %47, ptr noundef %50) #13
  %52 = call ptr @__cxa_allocate_exception(i64 40) #13
  invoke void @_ZN5faiss14FaissExceptionC1ERKNSt7__cxx1112basic_stringIcSt11char_traitsIcESaIcEEEPKcSA_i(ptr noundef nonnull align 8 dereferenceable(40) %52, ptr noundef nonnull align 8 dereferenceable(32) %6, ptr noundef @__PRETTY_FUNCTION__._ZN5faiss19OnDiskInvertedLists7do_mmapEv, ptr noundef @.str.6, i32 noundef 276)
          to label %53 unwind label %58

53:                                               ; preds = %43
  invoke void @__cxa_throw(ptr %52, ptr @_ZTIN5faiss14FaissExceptionE, ptr @_ZN5faiss14FaissExceptionD2Ev) #19
          to label %119 unwind label %54

54:                                               ; preds = %53, %41, %30
  %55 = landingpad { ptr, i32 }
          cleanup
  %56 = extractvalue { ptr, i32 } %55, 0
  store ptr %56, ptr %8, align 8
  %57 = extractvalue { ptr, i32 } %55, 1
  store i32 %57, ptr %9, align 4
  br label %62

58:                                               ; preds = %43
  %59 = landingpad { ptr, i32 }
          cleanup
  %60 = extractvalue { ptr, i32 } %59, 0
  store ptr %60, ptr %8, align 8
  %61 = extractvalue { ptr, i32 } %59, 1
  store i32 %61, ptr %9, align 4
  call void @__cxa_free_exception(ptr %52) #13
  br label %62

62:                                               ; preds = %58, %54
  call void @_ZNSt7__cxx1112basic_stringIcSt11char_traitsIcESaIcEED1Ev(ptr noundef nonnull align 8 dereferenceable(32) %6) #13
  br label %114

63:                                               ; No predecessors!
  br label %64

64:                                               ; preds = %63, %26
  br label %65

65:                                               ; preds = %64
  %66 = getelementptr inbounds %"struct.faiss::OnDiskInvertedLists", ptr %13, i32 0, i32 5
  %67 = load i64, ptr %66, align 8
  %68 = load i32, ptr %4, align 4
  %69 = load ptr, ptr %5, align 8
  %70 = call i32 @fileno(ptr noundef %69) #13
  %71 = call ptr @mmap(ptr noundef null, i64 noundef %67, i32 noundef %68, i32 noundef 1, i32 noundef %70, i64 noundef 0) #13
  store ptr %71, ptr %10, align 8
  %72 = load ptr, ptr %5, align 8
  %73 = call i32 @fclose(ptr noundef %72)
  br label %74

74:                                               ; preds = %65
  %75 = load ptr, ptr %10, align 8
  %76 = icmp ne ptr %75, inttoptr (i64 -1 to ptr)
  br i1 %76, label %110, label %77

77:                                               ; preds = %74
  br label %78

78:                                               ; preds = %77
  call void @_ZNSt7__cxx1112basic_stringIcSt11char_traitsIcESaIcEEC1Ev(ptr noundef nonnull align 8 dereferenceable(32) %11) #13
  %79 = getelementptr inbounds %"struct.faiss::OnDiskInvertedLists", ptr %13, i32 0, i32 4
  %80 = call noundef ptr @_ZNKSt7__cxx1112basic_stringIcSt11char_traitsIcESaIcEE5c_strEv(ptr noundef nonnull align 8 dereferenceable(32) %79) #13
  %81 = call ptr @__errno_location() #20
  %82 = load i32, ptr %81, align 4
  %83 = call ptr @strerror(i32 noundef %82) #13
  %84 = call i32 (ptr, i64, ptr, ...) @snprintf(ptr noundef null, i64 noundef 0, ptr noundef @.str.7, ptr noundef @.str.8, ptr noundef %80, ptr noundef %83) #13
  store i32 %84, ptr %12, align 4
  %85 = load i32, ptr %12, align 4
  %86 = add nsw i32 %85, 1
  %87 = sext i32 %86 to i64
  invoke void @_ZNSt7__cxx1112basic_stringIcSt11char_traitsIcESaIcEE6resizeEm(ptr noundef nonnull align 8 dereferenceable(32) %11, i64 noundef %87)
          to label %88 unwind label %100

88:                                               ; preds = %78
  %89 = invoke noundef nonnull align 1 dereferenceable(1) ptr @_ZNSt7__cxx1112basic_stringIcSt11char_traitsIcESaIcEEixEm(ptr noundef nonnull align 8 dereferenceable(32) %11, i64 noundef 0)
          to label %90 unwind label %100

90:                                               ; preds = %88
  %91 = call noundef i64 @_ZNKSt7__cxx1112basic_stringIcSt11char_traitsIcESaIcEE4sizeEv(ptr noundef nonnull align 8 dereferenceable(32) %11) #13
  %92 = getelementptr inbounds %"struct.faiss::OnDiskInvertedLists", ptr %13, i32 0, i32 4
  %93 = call noundef ptr @_ZNKSt7__cxx1112basic_stringIcSt11char_traitsIcESaIcEE5c_strEv(ptr noundef nonnull align 8 dereferenceable(32) %92) #13
  %94 = call ptr @__errno_location() #20
  %95 = load i32, ptr %94, align 4
  %96 = call ptr @strerror(i32 noundef %95) #13
  %97 = call i32 (ptr, i64, ptr, ...) @snprintf(ptr noundef %89, i64 noundef %91, ptr noundef @.str.7, ptr noundef @.str.8, ptr noundef %93, ptr noundef %96) #13
  %98 = call ptr @__cxa_allocate_exception(i64 40) #13
  invoke void @_ZN5faiss14FaissExceptionC1ERKNSt7__cxx1112basic_stringIcSt11char_traitsIcESaIcEEEPKcSA_i(ptr noundef nonnull align 8 dereferenceable(40) %98, ptr noundef nonnull align 8 dereferenceable(32) %11, ptr noundef @__PRETTY_FUNCTION__._ZN5faiss19OnDiskInvertedLists7do_mmapEv, ptr noundef @.str.6, i32 noundef 287)
          to label %99 unwind label %104

99:                                               ; preds = %90
  invoke void @__cxa_throw(ptr %98, ptr @_ZTIN5faiss14FaissExceptionE, ptr @_ZN5faiss14FaissExceptionD2Ev) #19
          to label %119 unwind label %100

100:                                              ; preds = %99, %88, %78
  %101 = landingpad { ptr, i32 }
          cleanup
  %102 = extractvalue { ptr, i32 } %101, 0
  store ptr %102, ptr %8, align 8
  %103 = extractvalue { ptr, i32 } %101, 1
  store i32 %103, ptr %9, align 4
  br label %108

104:                                              ; preds = %90
  %105 = landingpad { ptr, i32 }
          cleanup
  %106 = extractvalue { ptr, i32 } %105, 0
  store ptr %106, ptr %8, align 8
  %107 = extractvalue { ptr, i32 } %105, 1
  store i32 %107, ptr %9, align 4
  call void @__cxa_free_exception(ptr %98) #13
  br label %108

108:                                              ; preds = %104, %100
  call void @_ZNSt7__cxx1112basic_stringIcSt11char_traitsIcESaIcEED1Ev(ptr noundef nonnull align 8 dereferenceable(32) %11) #13
  br label %114

109:                                              ; No predecessors!
  br label %110

110:                                              ; preds = %109, %74
  br label %111

111:                                              ; preds = %110
  %112 = load ptr, ptr %10, align 8
  %113 = getelementptr inbounds %"struct.faiss::OnDiskInvertedLists", ptr %13, i32 0, i32 6
  store ptr %112, ptr %113, align 8
  ret void

114:                                              ; preds = %108, %62
  %115 = load ptr, ptr %8, align 8
  %116 = load i32, ptr %9, align 4
  %117 = insertvalue { ptr, i32 } poison, ptr %115, 0
  %118 = insertvalue { ptr, i32 } %117, i32 %116, 1
  resume { ptr, i32 } %118

119:                                              ; preds = %99, %53
  unreachable
}