; Function Attrs: mustprogress uwtable
define void @_ZN5faiss19OnDiskInvertedLists7do_mmapEv(ptr noundef nonnull align 8 dereferenceable(156) %0) local_unnamed_addr #3 align 2 personality ptr @__gxx_personality_v0 {
  %2 = alloca %"class.std::__cxx11::basic_string", align 8
  %3 = alloca %"class.std::__cxx11::basic_string", align 8
  %4 = getelementptr inbounds i8, ptr %0, i64 128
  %5 = load i8, ptr %4, align 8
  %6 = and i8 %5, 1
  %.not = icmp eq i8 %6, 0
  %7 = select i1 %.not, ptr @.str.3, ptr @.str.2
  %8 = getelementptr inbounds i8, ptr %0, i64 80
  %9 = tail call noundef ptr @_ZNKSt7__cxx1112basic_stringIcSt11char_traitsIcESaIcEE5c_strEv(ptr noundef nonnull align 8 dereferenceable(32) %8) #16
  %10 = tail call noalias ptr @fopen(ptr noundef %9, ptr noundef nonnull %7)
  %.not18 = icmp eq ptr %10, null
  br i1 %.not18, label %11, label %33

11:                                               ; preds = %1
  call void @_ZNSt7__cxx1112basic_stringIcSt11char_traitsIcESaIcEEC1Ev(ptr noundef nonnull align 8 dereferenceable(32) %2) #16
  %12 = call noundef ptr @_ZNKSt7__cxx1112basic_stringIcSt11char_traitsIcESaIcEE5c_strEv(ptr noundef nonnull align 8 dereferenceable(32) %8) #16
  %13 = tail call ptr @__errno_location() #26
  %14 = load i32, ptr %13, align 4
  %15 = call ptr @strerror(i32 noundef %14) #16
  %16 = call i32 (ptr, i64, ptr, ...) @snprintf(ptr noundef null, i64 noundef 0, ptr noundef nonnull @.str.4, ptr noundef nonnull @.str.5, ptr noundef %12, ptr noundef nonnull %7, ptr noundef %15) #16
  %17 = add nsw i32 %16, 1
  %18 = sext i32 %17 to i64
  invoke void @_ZNSt7__cxx1112basic_stringIcSt11char_traitsIcESaIcEE6resizeEm(ptr noundef nonnull align 8 dereferenceable(32) %2, i64 noundef %18)
          to label %19 unwind label %29

19:                                               ; preds = %11
  %20 = invoke noundef nonnull align 1 dereferenceable(1) ptr @_ZNSt7__cxx1112basic_stringIcSt11char_traitsIcESaIcEEixEm(ptr noundef nonnull align 8 dereferenceable(32) %2, i64 noundef 0)
          to label %21 unwind label %29

21:                                               ; preds = %19
  %22 = call noundef i64 @_ZNKSt7__cxx1112basic_stringIcSt11char_traitsIcESaIcEE4sizeEv(ptr noundef nonnull align 8 dereferenceable(32) %2) #16
  %23 = call noundef ptr @_ZNKSt7__cxx1112basic_stringIcSt11char_traitsIcESaIcEE5c_strEv(ptr noundef nonnull align 8 dereferenceable(32) %8) #16
  %24 = load i32, ptr %13, align 4
  %25 = call ptr @strerror(i32 noundef %24) #16
  %26 = call i32 (ptr, i64, ptr, ...) @snprintf(ptr noundef nonnull %20, i64 noundef %22, ptr noundef nonnull @.str.4, ptr noundef nonnull @.str.5, ptr noundef %23, ptr noundef nonnull %7, ptr noundef %25) #16
  %27 = call ptr @__cxa_allocate_exception(i64 40) #16
  invoke void @_ZN5faiss14FaissExceptionC1ERKNSt7__cxx1112basic_stringIcSt11char_traitsIcESaIcEEEPKcSA_i(ptr noundef nonnull align 8 dereferenceable(40) %27, ptr noundef nonnull align 8 dereferenceable(32) %2, ptr noundef nonnull @__PRETTY_FUNCTION__._ZN5faiss19OnDiskInvertedLists7do_mmapEv, ptr noundef nonnull @.str.6, i32 noundef 276)
          to label %28 unwind label %31

28:                                               ; preds = %21
  invoke void @__cxa_throw(ptr nonnull %27, ptr nonnull @_ZTIN5faiss14FaissExceptionE, ptr nonnull @_ZN5faiss14FaissExceptionD2Ev) #25
          to label %65 unwind label %29

29:                                               ; preds = %28, %19, %11
  %30 = landingpad { ptr, i32 }
          cleanup
  br label %64

31:                                               ; preds = %21
  %32 = landingpad { ptr, i32 }
          cleanup
  call void @__cxa_free_exception(ptr %27) #16
  br label %64

33:                                               ; preds = %1
  %34 = select i1 %.not, i32 3, i32 1
  %35 = getelementptr inbounds i8, ptr %0, i64 112
  %36 = load i64, ptr %35, align 8
  %37 = tail call i32 @fileno(ptr noundef nonnull %10) #16
  %38 = tail call ptr @mmap(ptr noundef null, i64 noundef %36, i32 noundef %34, i32 noundef 1, i32 noundef %37, i64 noundef 0) #16
  %39 = tail call i32 @fclose(ptr noundef nonnull %10)
  %.not20 = icmp eq ptr %38, inttoptr (i64 -1 to ptr)
  br i1 %.not20, label %40, label %62

40:                                               ; preds = %33
  call void @_ZNSt7__cxx1112basic_stringIcSt11char_traitsIcESaIcEEC1Ev(ptr noundef nonnull align 8 dereferenceable(32) %3) #16
  %41 = call noundef ptr @_ZNKSt7__cxx1112basic_stringIcSt11char_traitsIcESaIcEE5c_strEv(ptr noundef nonnull align 8 dereferenceable(32) %8) #16
  %42 = tail call ptr @__errno_location() #26
  %43 = load i32, ptr %42, align 4
  %44 = call ptr @strerror(i32 noundef %43) #16
  %45 = call i32 (ptr, i64, ptr, ...) @snprintf(ptr noundef null, i64 noundef 0, ptr noundef nonnull @.str.7, ptr noundef nonnull @.str.8, ptr noundef %41, ptr noundef %44) #16
  %46 = add nsw i32 %45, 1
  %47 = sext i32 %46 to i64
  invoke void @_ZNSt7__cxx1112basic_stringIcSt11char_traitsIcESaIcEE6resizeEm(ptr noundef nonnull align 8 dereferenceable(32) %3, i64 noundef %47)
          to label %48 unwind label %58

48:                                               ; preds = %40
  %49 = invoke noundef nonnull align 1 dereferenceable(1) ptr @_ZNSt7__cxx1112basic_stringIcSt11char_traitsIcESaIcEEixEm(ptr noundef nonnull align 8 dereferenceable(32) %3, i64 noundef 0)
          to label %50 unwind label %58

50:                                               ; preds = %48
  %51 = call noundef i64 @_ZNKSt7__cxx1112basic_stringIcSt11char_traitsIcESaIcEE4sizeEv(ptr noundef nonnull align 8 dereferenceable(32) %3) #16
  %52 = call noundef ptr @_ZNKSt7__cxx1112basic_stringIcSt11char_traitsIcESaIcEE5c_strEv(ptr noundef nonnull align 8 dereferenceable(32) %8) #16
  %53 = load i32, ptr %42, align 4
  %54 = call ptr @strerror(i32 noundef %53) #16
  %55 = call i32 (ptr, i64, ptr, ...) @snprintf(ptr noundef nonnull %49, i64 noundef %51, ptr noundef nonnull @.str.7, ptr noundef nonnull @.str.8, ptr noundef %52, ptr noundef %54) #16
  %56 = call ptr @__cxa_allocate_exception(i64 40) #16
  invoke void @_ZN5faiss14FaissExceptionC1ERKNSt7__cxx1112basic_stringIcSt11char_traitsIcESaIcEEEPKcSA_i(ptr noundef nonnull align 8 dereferenceable(40) %56, ptr noundef nonnull align 8 dereferenceable(32) %3, ptr noundef nonnull @__PRETTY_FUNCTION__._ZN5faiss19OnDiskInvertedLists7do_mmapEv, ptr noundef nonnull @.str.6, i32 noundef 287)
          to label %57 unwind label %60

57:                                               ; preds = %50
  invoke void @__cxa_throw(ptr nonnull %56, ptr nonnull @_ZTIN5faiss14FaissExceptionE, ptr nonnull @_ZN5faiss14FaissExceptionD2Ev) #25
          to label %65 unwind label %58

58:                                               ; preds = %57, %48, %40
  %59 = landingpad { ptr, i32 }
          cleanup
  br label %64

60:                                               ; preds = %50
  %61 = landingpad { ptr, i32 }
          cleanup
  call void @__cxa_free_exception(ptr %56) #16
  br label %64

62:                                               ; preds = %33
  %63 = getelementptr inbounds i8, ptr %0, i64 120
  store ptr %38, ptr %63, align 8
  ret void

64:                                               ; preds = %58, %60, %29, %31
  %.sink = phi ptr [ %2, %31 ], [ %2, %29 ], [ %3, %60 ], [ %3, %58 ]
  %.pn21.pn = phi { ptr, i32 } [ %32, %31 ], [ %30, %29 ], [ %61, %60 ], [ %59, %58 ]
  call void @_ZNSt7__cxx1112basic_stringIcSt11char_traitsIcESaIcEED1Ev(ptr noundef nonnull align 8 dereferenceable(32) %.sink) #16
  resume { ptr, i32 } %.pn21.pn

65:                                               ; preds = %57, %28
  unreachable
}